target datalayout = "e-m:e-p270:32:32-p271:32:32-p272:64:64-i64:64-i128:128-f80:128-n8:16:32:64-S128"
target triple = "x86_64-unknown-linux-gnu"

%"class.zmq::tipc_listener_t" = type <{ %"class.zmq::stream_listener_base_t", %"class.zmq::tipc_address_t", [4 x i8] }>
%"class.zmq::stream_listener_base_t" = type { %"class.zmq::own_t.base", %"class.zmq::io_object_t", i32, ptr, ptr, %"class.std::__cxx11::basic_string" }
%"class.zmq::own_t.base" = type <{ %"class.zmq::object_t.base", [4 x i8], %"struct.zmq::options_t", i8, [7 x i8], %"class.zmq::atomic_counter_t", i64, ptr, %"class.std::set.28", i32 }>
%"class.zmq::object_t.base" = type <{ ptr, ptr, i32 }>
%"struct.zmq::options_t" = type { i32, i32, i64, i8, [256 x i8], i32, i32, i32, i32, i32, i32, i32, i32, i8, %"struct.zmq::atomic_value_t", i32, i32, i32, i32, i32, i32, i64, i32, i32, i8, i32, i8, i8, i8, i8, i8, %"class.std::__cxx11::basic_string", %"class.std::__cxx11::basic_string", %"class.std::__cxx11::basic_string", i32, i32, i32, i32, %"class.std::vector", %"class.std::set", %"class.std::set", %"class.std::set.6", i32, i32, %"class.std::__cxx11::basic_string", %"class.std::__cxx11::basic_string", %"class.std::__cxx11::basic_string", [32 x i8], [32 x i8], [32 x i8], %"class.std::__cxx11::basic_string", %"class.std::__cxx11::basic_string", i32, i32, i8, i32, i8, i32, i8, i16, i32, i32, i32, %"class.std::__cxx11::basic_string", i8, i8, i8, i32, i32, i8, i32, %"class.std::map", i32, %"class.std::__cxx11::basic_string", %"class.std::__cxx11::basic_string", %"class.std::__cxx11::basic_string", %"class.std::__cxx11::basic_string", i8, %"class.std::vector.21", i8, %"class.std::vector.21", i8, %"class.std::vector.21", i8, i32, i8, i32, i32, i32, i32, i32, i8, i32 }
%"struct.zmq::atomic_value_t" = type { %"struct.std::atomic" }
%"struct.std::atomic" = type { %"struct.std::__atomic_base" }
%"struct.std::__atomic_base" = type { i32 }
%"class.std::vector" = type { %"struct.std::_Vector_base" }
%"struct.std::_Vector_base" = type { %"struct.std::_Vector_base<zmq::tcp_address_mask_t, std::allocator<zmq::tcp_address_mask_t>>::_Vector_impl" }
%"struct.std::_Vector_base<zmq::tcp_address_mask_t, std::allocator<zmq::tcp_address_mask_t>>::_Vector_impl" = type { %"struct.std::_Vector_base<zmq::tcp_address_mask_t, std::allocator<zmq::tcp_address_mask_t>>::_Vector_impl_data" }
%"struct.std::_Vector_base<zmq::tcp_address_mask_t, std::allocator<zmq::tcp_address_mask_t>>::_Vector_impl_data" = type { ptr, ptr, ptr }
%"class.std::set" = type { %"class.std::_Rb_tree" }
%"class.std::_Rb_tree" = type { %"struct.std::_Rb_tree<unsigned int, unsigned int, std::_Identity<unsigned int>, std::less<unsigned int>>::_Rb_tree_impl" }
%"struct.std::_Rb_tree<unsigned int, unsigned int, std::_Identity<unsigned int>, std::less<unsigned int>>::_Rb_tree_impl" = type { %"struct.std::_Rb_tree_key_compare", %"struct.std::_Rb_tree_header" }
%"struct.std::_Rb_tree_key_compare" = type { %"struct.std::less" }
%"struct.std::less" = type { i8 }
%"struct.std::_Rb_tree_header" = type { %"struct.std::_Rb_tree_node_base", i64 }
%"struct.std::_Rb_tree_node_base" = type { i32, ptr, ptr, ptr }
%"class.std::set.6" = type { %"class.std::_Rb_tree.7" }
%"class.std::_Rb_tree.7" = type { %"struct.std::_Rb_tree<int, int, std::_Identity<int>, std::less<int>>::_Rb_tree_impl" }
%"struct.std::_Rb_tree<int, int, std::_Identity<int>, std::less<int>>::_Rb_tree_impl" = type { %"struct.std::_Rb_tree_key_compare.11", %"struct.std::_Rb_tree_header" }
%"struct.std::_Rb_tree_key_compare.11" = type { %"struct.std::less.12" }
%"struct.std::less.12" = type { i8 }
%"class.std::map" = type { %"class.std::_Rb_tree.14" }
%"class.std::_Rb_tree.14" = type { %"struct.std::_Rb_tree<std::__cxx11::basic_string<char>, std::pair<const std::__cxx11::basic_string<char>, std::__cxx11::basic_string<char>>, std::_Select1st<std::pair<const std::__cxx11::basic_string<char>, std::__cxx11::basic_string<char>>>, std::less<std::__cxx11::basic_string<char>>>::_Rb_tree_impl" }
%"struct.std::_Rb_tree<std::__cxx11::basic_string<char>, std::pair<const std::__cxx11::basic_string<char>, std::__cxx11::basic_string<char>>, std::_Select1st<std::pair<const std::__cxx11::basic_string<char>, std::__cxx11::basic_string<char>>>, std::less<std::__cxx11::basic_string<char>>>::_Rb_tree_impl" = type { %"struct.std::_Rb_tree_key_compare.18", %"struct.std::_Rb_tree_header" }
%"struct.std::_Rb_tree_key_compare.18" = type { %"struct.std::less.19" }
%"struct.std::less.19" = type { i8 }
%"class.std::vector.21" = type { %"struct.std::_Vector_base.22" }
%"struct.std::_Vector_base.22" = type { %"struct.std::_Vector_base<unsigned char, std::allocator<unsigned char>>::_Vector_impl" }
%"struct.std::_Vector_base<unsigned char, std::allocator<unsigned char>>::_Vector_impl" = type { %"struct.std::_Vector_base<unsigned char, std::allocator<unsigned char>>::_Vector_impl_data" }
%"struct.std::_Vector_base<unsigned char, std::allocator<unsigned char>>::_Vector_impl_data" = type { ptr, ptr, ptr }
%"class.zmq::atomic_counter_t" = type { %"struct.std::atomic.26", [4 x i8] }
%"struct.std::atomic.26" = type { %"struct.std::__atomic_base.27" }
%"struct.std::__atomic_base.27" = type { i32 }
%"class.std::set.28" = type { %"class.std::_Rb_tree.29" }
%"class.std::_Rb_tree.29" = type { %"struct.std::_Rb_tree<zmq::own_t *, zmq::own_t *, std::_Identity<zmq::own_t *>, std::less<zmq::own_t *>>::_Rb_tree_impl" }
%"struct.std::_Rb_tree<zmq::own_t *, zmq::own_t *, std::_Identity<zmq::own_t *>, std::less<zmq::own_t *>>::_Rb_tree_impl" = type { %"struct.std::_Rb_tree_key_compare.33", %"struct.std::_Rb_tree_header" }
%"struct.std::_Rb_tree_key_compare.33" = type { %"struct.std::less.34" }
%"struct.std::less.34" = type { i8 }
%"class.zmq::io_object_t" = type { %"struct.zmq::i_poll_events", ptr }
%"struct.zmq::i_poll_events" = type { ptr }
%"class.std::__cxx11::basic_string" = type { %"struct.std::__cxx11::basic_string<char>::_Alloc_hider", i64, %union.anon }
%"struct.std::__cxx11::basic_string<char>::_Alloc_hider" = type { ptr }
%union.anon = type { i64, [8 x i8] }
%"class.zmq::tipc_address_t" = type { i8, %struct.sockaddr_tipc }
%struct.sockaddr_tipc = type { i16, i8, i8, %union.anon.36 }
%union.anon.36 = type { %struct.tipc_service_range }
%struct.tipc_service_range = type { i32, i32, i32 }
%"struct.zmq::endpoint_uri_pair_t" = type <{ %"class.std::__cxx11::basic_string", %"class.std::__cxx11::basic_string", i32, [4 x i8] }>
%struct.sockaddr_storage = type { i16, [118 x i8], i64 }
%"class.zmq::own_t" = type <{ %"class.zmq::object_t.base", [4 x i8], %"struct.zmq::options_t", i8, [7 x i8], %"class.zmq::atomic_counter_t", i64, ptr, %"class.std::set.28", i32, [4 x i8] }>

; Function Attrs: mustprogress nounwind uwtable
define linkonce_odr void @_ZN3zmq19endpoint_uri_pair_tD2Ev(ptr noundef nonnull align 8 dereferenceable(68) %this) unnamed_addr #3 comdat align 2 {
entry:
  %this.addr = alloca ptr, align 8
  store ptr %this, ptr %this.addr, align 8
  %this1 = load ptr, ptr %this.addr, align 8
  %remote = getelementptr inbounds %"struct.zmq::endpoint_uri_pair_t", ptr %this1, i32 0, i32 1
  call void @_ZNSt7__cxx1112basic_stringIcSt11char_traitsIcESaIcEED1Ev(ptr noundef nonnull align 8 dereferenceable(32) %remote) #10
  %local = getelementptr inbounds %"struct.zmq::endpoint_uri_pair_t", ptr %this1, i32 0, i32 0
  call void @_ZNSt7__cxx1112basic_stringIcSt11char_traitsIcESaIcEED1Ev(ptr noundef nonnull align 8 dereferenceable(32) %local) #10
  ret void
}

; Function Attrs: mustprogress uwtable
define noundef i32 @_ZN3zmq15tipc_listener_t17set_local_addressEPKc(ptr noundef nonnull align 8 dereferenceable(1544) %this, ptr noundef %addr_) #0 align 2 personality ptr @__gxx_personality_v0 {
entry:
  %retval = alloca i32, align 4
  %this.addr = alloca ptr, align 8
  %addr_.addr = alloca ptr, align 8
  %rc = alloca i32, align 4
  %a = alloca ptr, align 8
  %ss = alloca %struct.sockaddr_storage, align 8
  %sl = alloca i32, align 4
  %ref.tmp = alloca %"class.zmq::tipc_address_t", align 4
  %ref.tmp45 = alloca %"struct.zmq::endpoint_uri_pair_t", align 8
  %exn.slot = alloca ptr, align 8
  %ehselector.slot = alloca i32, align 4
  %err = alloca i32, align 4
  store ptr %this, ptr %this.addr, align 8
  store ptr %addr_, ptr %addr_.addr, align 8
  %this1 = load ptr, ptr %this.addr, align 8
  %_address = getelementptr inbounds %"class.zmq::tipc_listener_t", ptr %this1, i32 0, i32 1
  %0 = load ptr, ptr %addr_.addr, align 8
  %call = call noundef i32 @_ZN3zmq14tipc_address_t7resolveEPKc(ptr noundef nonnull align 4 dereferenceable(20) %_address, ptr noundef %0)
  store i32 %call, ptr %rc, align 4
  %1 = load i32, ptr %rc, align 4
  %cmp = icmp ne i32 %1, 0
  br i1 %cmp, label %if.then, label %if.end

if.then:                                          ; preds = %entry
  store i32 -1, ptr %retval, align 4
  br label %return

if.end:                                           ; preds = %entry
  %_address2 = getelementptr inbounds %"class.zmq::tipc_listener_t", ptr %this1, i32 0, i32 1
  %call3 = call noundef ptr @_ZNK3zmq14tipc_address_t4addrEv(ptr noundef nonnull align 4 dereferenceable(20) %_address2)
  store ptr %call3, ptr %a, align 8
  %_address4 = getelementptr inbounds %"class.zmq::tipc_listener_t", ptr %this1, i32 0, i32 1
  %call5 = call noundef zeroext i1 @_ZNK3zmq14tipc_address_t9is_randomEv(ptr noundef nonnull align 4 dereferenceable(20) %_address4)
  br i1 %call5, label %if.end9, label %land.lhs.true

land.lhs.true:                                    ; preds = %if.end
  %2 = load ptr, ptr %a, align 8
  %addrtype = getelementptr inbounds %struct.sockaddr_tipc, ptr %2, i32 0, i32 1
  %3 = load i8, ptr %addrtype, align 2
  %conv = zext i8 %3 to i32
  %cmp6 = icmp eq i32 %conv, 3
  br i1 %cmp6, label %if.then7, label %if.end9

if.then7:                                         ; preds = %land.lhs.true
  %call8 = call ptr @__errno_location() #11
  store i32 22, ptr %call8, align 4
  store i32 -1, ptr %retval, align 4
  br label %return

if.end9:                                          ; preds = %land.lhs.true, %if.end
  %call10 = call noundef i32 @_ZN3zmq11open_socketEiii(i32 noundef 30, i32 noundef 1, i32 noundef 0)
  %_s = getelementptr inbounds %"class.zmq::stream_listener_base_t", ptr %this1, i32 0, i32 2
  store i32 %call10, ptr %_s, align 8
  %_s11 = getelementptr inbounds %"class.zmq::stream_listener_base_t", ptr %this1, i32 0, i32 2
  %4 = load i32, ptr %_s11, align 8
  %cmp12 = icmp eq i32 %4, -1
  br i1 %cmp12, label %if.then13, label %if.end14

if.then13:                                        ; preds = %if.end9
  store i32 -1, ptr %retval, align 4
  br label %return

if.end14:                                         ; preds = %if.end9
  %_address15 = getelementptr inbounds %"class.zmq::tipc_listener_t", ptr %this1, i32 0, i32 1
  %call16 = call noundef zeroext i1 @_ZNK3zmq14tipc_address_t9is_randomEv(ptr noundef nonnull align 4 dereferenceable(20) %_address15)
  br i1 %call16, label %if.then17, label %if.end24

if.then17:                                        ; preds = %if.end14
  %_s18 = getelementptr inbounds %"class.zmq::stream_listener_base_t", ptr %this1, i32 0, i32 2
  %5 = load i32, ptr %_s18, align 8
  %call19 = call noundef i32 @_ZN3zmq18get_socket_addressEiNS_12socket_end_tEP16sockaddr_storage(i32 noundef %5, i32 noundef 0, ptr noundef %ss)
  store i32 %call19, ptr %sl, align 4
  %6 = load i32, ptr %sl, align 4
  %cmp20 = icmp eq i32 %6, 0
  br i1 %cmp20, label %if.then21, label %if.end22

if.then21:                                        ; preds = %if.then17
  br label %error

if.end22:                                         ; preds = %if.then17
  %7 = load i32, ptr %sl, align 4
  call void @_ZN3zmq14tipc_address_tC1EPK8sockaddrj(ptr noundef nonnull align 4 dereferenceable(20) %ref.tmp, ptr noundef %ss, i32 noundef %7)
  %_address23 = getelementptr inbounds %"class.zmq::tipc_listener_t", ptr %this1, i32 0, i32 1
  call void @llvm.memcpy.p0.p0.i64(ptr align 8 %_address23, ptr align 4 %ref.tmp, i64 20, i1 false)
  br label %if.end24

if.end24:                                         ; preds = %if.end22, %if.end14
  %_address25 = getelementptr inbounds %"class.zmq::tipc_listener_t", ptr %this1, i32 0, i32 1
  %_endpoint = getelementptr inbounds %"class.zmq::stream_listener_base_t", ptr %this1, i32 0, i32 5
  %call26 = call noundef i32 @_ZNK3zmq14tipc_address_t9to_stringERNSt7__cxx1112basic_stringIcSt11char_traitsIcESaIcEEE(ptr noundef nonnull align 4 dereferenceable(20) %_address25, ptr noundef nonnull align 8 dereferenceable(32) %_endpoint)
  %_address27 = getelementptr inbounds %"class.zmq::tipc_listener_t", ptr %this1, i32 0, i32 1
  %call28 = call noundef zeroext i1 @_ZNK3zmq14tipc_address_t10is_serviceEv(ptr noundef nonnull align 4 dereferenceable(20) %_address27)
  br i1 %call28, label %if.then29, label %if.end39

if.then29:                                        ; preds = %if.end24
  %_s30 = getelementptr inbounds %"class.zmq::stream_listener_base_t", ptr %this1, i32 0, i32 2
  %8 = load i32, ptr %_s30, align 8
  %_address31 = getelementptr inbounds %"class.zmq::tipc_listener_t", ptr %this1, i32 0, i32 1
  %call32 = call noundef ptr @_ZNK3zmq14tipc_address_t4addrEv(ptr noundef nonnull align 4 dereferenceable(20) %_address31)
  %_address33 = getelementptr inbounds %"class.zmq::tipc_listener_t", ptr %this1, i32 0, i32 1
  %call34 = call noundef i32 @_ZNK3zmq14tipc_address_t7addrlenEv(ptr noundef nonnull align 4 dereferenceable(20) %_address33)
  %call35 = call i32 @bind(i32 noundef %8, ptr noundef %call32, i32 noundef %call34) #10
  store i32 %call35, ptr %rc, align 4
  %9 = load i32, ptr %rc, align 4
  %cmp36 = icmp ne i32 %9, 0
  br i1 %cmp36, label %if.then37, label %if.end38

if.then37:                                        ; preds = %if.then29
  br label %error

if.end38:                                         ; preds = %if.then29
  br label %if.end39

if.end39:                                         ; preds = %if.end38, %if.end24
  %_s40 = getelementptr inbounds %"class.zmq::stream_listener_base_t", ptr %this1, i32 0, i32 2
  %10 = load i32, ptr %_s40, align 8
  %options = getelementptr inbounds %"class.zmq::own_t", ptr %this1, i32 0, i32 2
  %backlog = getelementptr inbounds %"struct.zmq::options_t", ptr %options, i32 0, i32 20
  %11 = load i32, ptr %backlog, align 8
  %call41 = call i32 @listen(i32 noundef %10, i32 noundef %11) #10
  store i32 %call41, ptr %rc, align 4
  %12 = load i32, ptr %rc, align 4
  %cmp42 = icmp ne i32 %12, 0
  br i1 %cmp42, label %if.then43, label %if.end44

if.then43:                                        ; preds = %if.end39
  br label %error

if.end44:                                         ; preds = %if.end39
  %_socket = getelementptr inbounds %"class.zmq::stream_listener_base_t", ptr %this1, i32 0, i32 4
  %13 = load ptr, ptr %_socket, align 8
  %_endpoint46 = getelementptr inbounds %"class.zmq::stream_listener_base_t", ptr %this1, i32 0, i32 5
  call void @_ZN3zmq35make_unconnected_bind_endpoint_pairERKNSt7__cxx1112basic_stringIcSt11char_traitsIcESaIcEEE(ptr sret(%"struct.zmq::endpoint_uri_pair_t") align 8 %ref.tmp45, ptr noundef nonnull align 8 dereferenceable(32) %_endpoint46)
  %_s47 = getelementptr inbounds %"class.zmq::stream_listener_base_t", ptr %this1, i32 0, i32 2
  %14 = load i32, ptr %_s47, align 8
  invoke void @_ZN3zmq13socket_base_t15event_listeningERKNS_19endpoint_uri_pair_tEi(ptr noundef nonnull align 8 dereferenceable(1825) %13, ptr noundef nonnull align 8 dereferenceable(68) %ref.tmp45, i32 noundef %14)
          to label %invoke.cont unwind label %lpad

invoke.cont:                                      ; preds = %if.end44
  call void @_ZN3zmq19endpoint_uri_pair_tD2Ev(ptr noundef nonnull align 8 dereferenceable(68) %ref.tmp45) #10
  store i32 0, ptr %retval, align 4
  br label %return

lpad:                                             ; preds = %if.end44
  %15 = landingpad { ptr, i32 }
          cleanup
  %16 = extractvalue { ptr, i32 } %15, 0
  store ptr %16, ptr %exn.slot, align 8
  %17 = extractvalue { ptr, i32 } %15, 1
  store i32 %17, ptr %ehselector.slot, align 4
  call void @_ZN3zmq19endpoint_uri_pair_tD2Ev(ptr noundef nonnull align 8 dereferenceable(68) %ref.tmp45) #10
  br label %eh.resume

error:                                            ; preds = %if.then43, %if.then37, %if.then21
  %call48 = call ptr @__errno_location() #11
  %18 = load i32, ptr %call48, align 4
  store i32 %18, ptr %err, align 4
  %call49 = call noundef i32 @_ZN3zmq22stream_listener_base_t5closeEv(ptr noundef nonnull align 8 dereferenceable(1520) %this1)
  %19 = load i32, ptr %err, align 4
  %call50 = call ptr @__errno_location() #11
  store i32 %19, ptr %call50, align 4
  store i32 -1, ptr %retval, align 4
  br label %return

return:                                           ; preds = %error, %invoke.cont, %if.then13, %if.then7, %if.then
  %20 = load i32, ptr %retval, align 4
  ret i32 %20

eh.resume:                                        ; preds = %lpad
  %exn = load ptr, ptr %exn.slot, align 8
  %sel = load i32, ptr %ehselector.slot, align 4
  %lpad.val = insertvalue { ptr, i32 } poison, ptr %exn, 0
  %lpad.val51 = insertvalue { ptr, i32 } %lpad.val, i32 %sel, 1
  resume { ptr, i32 } %lpad.val51
}