; Function Attrs: mustprogress uwtable
define noundef i32 @_ZN3zmq15tipc_listener_t17set_local_addressEPKc(ptr noundef nonnull align 8 dereferenceable(1544) %this, ptr noundef %addr_) local_unnamed_addr #0 align 2 personality ptr @__gxx_personality_v0 {
entry:
  %ss = alloca %struct.sockaddr_storage, align 8
  %ref.tmp = alloca %"class.zmq::tipc_address_t", align 4
  %ref.tmp45 = alloca %"struct.zmq::endpoint_uri_pair_t", align 8
  %_address = getelementptr inbounds i8, ptr %this, i64 1520
  %call = tail call noundef i32 @_ZN3zmq14tipc_address_t7resolveEPKc(ptr noundef nonnull align 4 dereferenceable(20) %_address, ptr noundef %addr_)
  %cmp.not = icmp eq i32 %call, 0
  br i1 %cmp.not, label %if.end, label %return

if.end:                                           ; preds = %entry
  %call3 = tail call noundef ptr @_ZNK3zmq14tipc_address_t4addrEv(ptr noundef nonnull align 4 dereferenceable(20) %_address)
  %call5 = tail call noundef zeroext i1 @_ZNK3zmq14tipc_address_t9is_randomEv(ptr noundef nonnull align 4 dereferenceable(20) %_address)
  br i1 %call5, label %if.end9, label %land.lhs.true

land.lhs.true:                                    ; preds = %if.end
  %addrtype = getelementptr inbounds i8, ptr %call3, i64 2
  %0 = load i8, ptr %addrtype, align 2
  %cmp6 = icmp eq i8 %0, 3
  br i1 %cmp6, label %if.then7, label %if.end9

if.then7:                                         ; preds = %land.lhs.true
  %call8 = tail call ptr @__errno_location() #14
  store i32 22, ptr %call8, align 4
  br label %return

if.end9:                                          ; preds = %land.lhs.true, %if.end
  %call10 = tail call noundef i32 @_ZN3zmq11open_socketEiii(i32 noundef 30, i32 noundef 1, i32 noundef 0)
  %_s = getelementptr inbounds i8, ptr %this, i64 1464
  store i32 %call10, ptr %_s, align 8
  %cmp12 = icmp eq i32 %call10, -1
  br i1 %cmp12, label %return, label %if.end14

if.end14:                                         ; preds = %if.end9
  %call16 = tail call noundef zeroext i1 @_ZNK3zmq14tipc_address_t9is_randomEv(ptr noundef nonnull align 4 dereferenceable(20) %_address)
  br i1 %call16, label %if.then17, label %if.end24

if.then17:                                        ; preds = %if.end14
  %1 = load i32, ptr %_s, align 8
  %call19 = call noundef i32 @_ZN3zmq18get_socket_addressEiNS_12socket_end_tEP16sockaddr_storage(i32 noundef %1, i32 noundef 0, ptr noundef nonnull %ss)
  %cmp20 = icmp eq i32 %call19, 0
  br i1 %cmp20, label %error, label %if.end22

if.end22:                                         ; preds = %if.then17
  call void @_ZN3zmq14tipc_address_tC1EPK8sockaddrj(ptr noundef nonnull align 4 dereferenceable(20) %ref.tmp, ptr noundef nonnull %ss, i32 noundef %call19)
  call void @llvm.memcpy.p0.p0.i64(ptr noundef nonnull align 8 dereferenceable(20) %_address, ptr noundef nonnull align 4 dereferenceable(20) %ref.tmp, i64 20, i1 false)
  br label %if.end24

if.end24:                                         ; preds = %if.end22, %if.end14
  %_endpoint = getelementptr inbounds i8, ptr %this, i64 1488
  %call26 = call noundef i32 @_ZNK3zmq14tipc_address_t9to_stringERNSt7__cxx1112basic_stringIcSt11char_traitsIcESaIcEEE(ptr noundef nonnull align 4 dereferenceable(20) %_address, ptr noundef nonnull align 8 dereferenceable(32) %_endpoint)
  %call28 = call noundef zeroext i1 @_ZNK3zmq14tipc_address_t10is_serviceEv(ptr noundef nonnull align 4 dereferenceable(20) %_address)
  br i1 %call28, label %if.then29, label %if.end39

if.then29:                                        ; preds = %if.end24
  %2 = load i32, ptr %_s, align 8
  %call32 = call noundef ptr @_ZNK3zmq14tipc_address_t4addrEv(ptr noundef nonnull align 4 dereferenceable(20) %_address)
  %call34 = call noundef i32 @_ZNK3zmq14tipc_address_t7addrlenEv(ptr noundef nonnull align 4 dereferenceable(20) %_address)
  %call35 = call i32 @bind(i32 noundef %2, ptr noundef %call32, i32 noundef %call34) #12
  %cmp36.not = icmp eq i32 %call35, 0
  br i1 %cmp36.not, label %if.end39, label %error

if.end39:                                         ; preds = %if.then29, %if.end24
  %3 = load i32, ptr %_s, align 8
  %backlog = getelementptr inbounds i8, ptr %this, i64 360
  %4 = load i32, ptr %backlog, align 8
  %call41 = call i32 @listen(i32 noundef %3, i32 noundef %4) #12
  %cmp42.not = icmp eq i32 %call41, 0
  br i1 %cmp42.not, label %if.end44, label %error

if.end44:                                         ; preds = %if.end39
  %_socket = getelementptr inbounds i8, ptr %this, i64 1480
  %5 = load ptr, ptr %_socket, align 8
  call void @_ZN3zmq35make_unconnected_bind_endpoint_pairERKNSt7__cxx1112basic_stringIcSt11char_traitsIcESaIcEEE(ptr nonnull sret(%"struct.zmq::endpoint_uri_pair_t") align 8 %ref.tmp45, ptr noundef nonnull align 8 dereferenceable(32) %_endpoint)
  %6 = load i32, ptr %_s, align 8
  invoke void @_ZN3zmq13socket_base_t15event_listeningERKNS_19endpoint_uri_pair_tEi(ptr noundef nonnull align 8 dereferenceable(1825) %5, ptr noundef nonnull align 8 dereferenceable(68) %ref.tmp45, i32 noundef %6)
          to label %invoke.cont unwind label %lpad

invoke.cont:                                      ; preds = %if.end44
  %remote.i = getelementptr inbounds i8, ptr %ref.tmp45, i64 32
  call void @_ZNSt7__cxx1112basic_stringIcSt11char_traitsIcESaIcEED1Ev(ptr noundef nonnull align 8 dereferenceable(32) %remote.i) #12
  call void @_ZNSt7__cxx1112basic_stringIcSt11char_traitsIcESaIcEED1Ev(ptr noundef nonnull align 8 dereferenceable(32) %ref.tmp45) #12
  br label %return

lpad:                                             ; preds = %if.end44
  %7 = landingpad { ptr, i32 }
          cleanup
  %remote.i4 = getelementptr inbounds i8, ptr %ref.tmp45, i64 32
  call void @_ZNSt7__cxx1112basic_stringIcSt11char_traitsIcESaIcEED1Ev(ptr noundef nonnull align 8 dereferenceable(32) %remote.i4) #12
  call void @_ZNSt7__cxx1112basic_stringIcSt11char_traitsIcESaIcEED1Ev(ptr noundef nonnull align 8 dereferenceable(32) %ref.tmp45) #12
  resume { ptr, i32 } %7

error:                                            ; preds = %if.end39, %if.then29, %if.then17
  %call48 = tail call ptr @__errno_location() #14
  %8 = load i32, ptr %call48, align 4
  %call49 = call noundef i32 @_ZN3zmq22stream_listener_base_t5closeEv(ptr noundef nonnull align 8 dereferenceable(1520) %this)
  store i32 %8, ptr %call48, align 4
  br label %return

return:                                           ; preds = %if.end9, %entry, %error, %invoke.cont, %if.then7
  %retval.0 = phi i32 [ -1, %error ], [ 0, %invoke.cont ], [ -1, %if.then7 ], [ -1, %entry ], [ -1, %if.end9 ]
  ret i32 %retval.0
}